; Function Attrs: mustprogress nounwind uwtable
define dso_local void @_ZNK4llvm6object15XCOFFObjectFile11getFeaturesEv(ptr dead_on_unwind noalias nocapture writable sret(%"class.llvm::Expected.82") align 8 %0, ptr nocapture nonnull readnone align 8 %1) unnamed_addr #0 align 2 {
_ZN4llvm17SubtargetFeaturesD2Ev.exit:
  %2 = alloca %"class.llvm::SubtargetFeatures", align 8
  call void @_ZN4llvm17SubtargetFeaturesC1ENS_9StringRefE(ptr noundef nonnull align 8 dereferenceable(24) %2, ptr nonnull @.str.30, i64 0) #23
  %3 = getelementptr inbounds nuw i8, ptr %0, i64 24
  %4 = load i8, ptr %3, align 8
  %5 = and i8 %4, -2
  store i8 %5, ptr %3, align 8
  %6 = load ptr, ptr %2, align 8
  store ptr %6, ptr %0, align 8
  %7 = getelementptr inbounds nuw i8, ptr %0, i64 8
  %8 = getelementptr inbounds nuw i8, ptr %2, i64 8
  %9 = load ptr, ptr %8, align 8
  store ptr %9, ptr %7, align 8
  %10 = getelementptr inbounds nuw i8, ptr %0, i64 16
  %11 = getelementptr inbounds nuw i8, ptr %2, i64 16
  %12 = load ptr, ptr %11, align 8
  store ptr %12, ptr %10, align 8
  ret void
}